
ProjektX.elf:     file format elf32-littlearm

Sections:
Idx Name          Size      VMA       LMA       File off  Algn
  0 .isr_vector   000000c0  08000000  08000000  00010000  2**0
                  CONTENTS, ALLOC, LOAD, READONLY, DATA
  1 .text         000002ac  080000c0  080000c0  000100c0  2**2
                  CONTENTS, ALLOC, LOAD, READONLY, CODE
  2 .rodata       00000000  0800036c  08000374  00010374  2**0
                  CONTENTS, ALLOC, LOAD, DATA
  3 .ARM.extab    00000000  0800036c  0800036c  00010374  2**0
                  CONTENTS
  4 .ARM          00000000  0800036c  0800036c  00010374  2**0
                  CONTENTS
  5 .preinit_array 00000000  0800036c  08000374  00010374  2**0
                  CONTENTS, ALLOC, LOAD, DATA
  6 .init_array   00000004  0800036c  0800036c  0001036c  2**2
                  CONTENTS, ALLOC, LOAD, DATA
  7 .fini_array   00000004  08000370  08000370  00010370  2**2
                  CONTENTS, ALLOC, LOAD, DATA
  8 .data         00000000  20000000  20000000  00010374  2**0
                  CONTENTS, ALLOC, LOAD, DATA
  9 .bss          00000028  20000000  08000374  00020000  2**2
                  ALLOC
 10 ._user_heap_stack 00000600  20000028  08000374  00020028  2**0
                  ALLOC
 11 .ARM.attributes 00000028  00000000  00000000  00010374  2**0
                  CONTENTS, READONLY
 12 .comment      00000050  00000000  00000000  0001039c  2**0
                  CONTENTS, READONLY
 13 .debug_frame  0000004c  00000000  00000000  000103ec  2**2
                  CONTENTS, READONLY, DEBUGGING, OCTETS

Disassembly of section .text:

080000c0 <__do_global_dtors_aux>:
 80000c0:	b510      	push	{r4, lr}
 80000c2:	4c06      	ldr	r4, [pc, #24]	; (80000dc <__do_global_dtors_aux+0x1c>)
 80000c4:	7823      	ldrb	r3, [r4, #0]
 80000c6:	2b00      	cmp	r3, #0
 80000c8:	d107      	bne.n	80000da <__do_global_dtors_aux+0x1a>
 80000ca:	4b05      	ldr	r3, [pc, #20]	; (80000e0 <__do_global_dtors_aux+0x20>)
 80000cc:	2b00      	cmp	r3, #0
 80000ce:	d002      	beq.n	80000d6 <__do_global_dtors_aux+0x16>
 80000d0:	4804      	ldr	r0, [pc, #16]	; (80000e4 <__do_global_dtors_aux+0x24>)
 80000d2:	e000      	b.n	80000d6 <__do_global_dtors_aux+0x16>
 80000d4:	bf00      	nop
 80000d6:	2301      	movs	r3, #1
 80000d8:	7023      	strb	r3, [r4, #0]
 80000da:	bd10      	pop	{r4, pc}
 80000dc:	20000000 	.word	0x20000000
 80000e0:	00000000 	.word	0x00000000
 80000e4:	08000354 	.word	0x08000354

080000e8 <frame_dummy>:
 80000e8:	4b04      	ldr	r3, [pc, #16]	; (80000fc <frame_dummy+0x14>)
 80000ea:	b510      	push	{r4, lr}
 80000ec:	2b00      	cmp	r3, #0
 80000ee:	d003      	beq.n	80000f8 <frame_dummy+0x10>
 80000f0:	4903      	ldr	r1, [pc, #12]	; (8000100 <frame_dummy+0x18>)
 80000f2:	4804      	ldr	r0, [pc, #16]	; (8000104 <frame_dummy+0x1c>)
 80000f4:	e000      	b.n	80000f8 <frame_dummy+0x10>
 80000f6:	bf00      	nop
 80000f8:	bd10      	pop	{r4, pc}
 80000fa:	46c0      	nop			; (mov r8, r8)
 80000fc:	00000000 	.word	0x00000000
 8000100:	20000004 	.word	0x20000004
 8000104:	08000354 	.word	0x08000354

08000108 <LedHandler_MainFunction>:
 8000108:	4a0a      	ldr	r2, [pc, #40]	; (8000134 <LedHandler_MainFunction+0x2c>)
 800010a:	b510      	push	{r4, lr}
 800010c:	6813      	ldr	r3, [r2, #0]
 800010e:	2b64      	cmp	r3, #100	; 0x64
 8000110:	d10c      	bne.n	800012c <LedHandler_MainFunction+0x24>
 8000112:	2090      	movs	r0, #144	; 0x90
 8000114:	2180      	movs	r1, #128	; 0x80
 8000116:	05c0      	lsls	r0, r0, #23
 8000118:	6944      	ldr	r4, [r0, #20]
 800011a:	0349      	lsls	r1, r1, #13
 800011c:	0423      	lsls	r3, r4, #16
 800011e:	400b      	ands	r3, r1
 8000120:	2110      	movs	r1, #16
 8000122:	43a1      	bics	r1, r4
 8000124:	430b      	orrs	r3, r1
 8000126:	6183      	str	r3, [r0, #24]
 8000128:	2300      	movs	r3, #0
 800012a:	6013      	str	r3, [r2, #0]
 800012c:	6813      	ldr	r3, [r2, #0]
 800012e:	3301      	adds	r3, #1
 8000130:	6013      	str	r3, [r2, #0]
 8000132:	bd10      	pop	{r4, pc}
 8000134:	2000001c 	.word	0x2000001c

08000138 <Os_Scheduler>:
 8000138:	4b0b      	ldr	r3, [pc, #44]	; (8000168 <Os_Scheduler+0x30>)
 800013a:	490c      	ldr	r1, [pc, #48]	; (800016c <Os_Scheduler+0x34>)
 800013c:	681a      	ldr	r2, [r3, #0]
 800013e:	4b0c      	ldr	r3, [pc, #48]	; (8000170 <Os_Scheduler+0x38>)
 8000140:	b570      	push	{r4, r5, r6, lr}
 8000142:	4353      	muls	r3, r2
 8000144:	2201      	movs	r2, #1
 8000146:	41d3      	rors	r3, r2
 8000148:	4c0a      	ldr	r4, [pc, #40]	; (8000174 <Os_Scheduler+0x3c>)
 800014a:	428b      	cmp	r3, r1
 800014c:	d802      	bhi.n	8000154 <Os_Scheduler+0x1c>
 800014e:	6823      	ldr	r3, [r4, #0]
 8000150:	431a      	orrs	r2, r3
 8000152:	6022      	str	r2, [r4, #0]
 8000154:	2501      	movs	r5, #1
 8000156:	6823      	ldr	r3, [r4, #0]
 8000158:	422b      	tst	r3, r5
 800015a:	d004      	beq.n	8000166 <Os_Scheduler+0x2e>
 800015c:	f7ff ffd4 	bl	8000108 <LedHandler_MainFunction>
 8000160:	6823      	ldr	r3, [r4, #0]
 8000162:	405d      	eors	r5, r3
 8000164:	6025      	str	r5, [r4, #0]
 8000166:	bd70      	pop	{r4, r5, r6, pc}
 8000168:	20000024 	.word	0x20000024
 800016c:	19999999 	.word	0x19999999
 8000170:	cccccccd 	.word	0xcccccccd
 8000174:	20000020 	.word	0x20000020

08000178 <SysTick_Handler>:
 8000178:	b510      	push	{r4, lr}
 800017a:	4a03      	ldr	r2, [pc, #12]	; (8000188 <SysTick_Handler+0x10>)
 800017c:	6813      	ldr	r3, [r2, #0]
 800017e:	3301      	adds	r3, #1
 8000180:	6013      	str	r3, [r2, #0]
 8000182:	f7ff ffd9 	bl	8000138 <Os_Scheduler>
 8000186:	bd10      	pop	{r4, pc}
 8000188:	20000024 	.word	0x20000024

0800018c <Os_Init>:
 800018c:	4770      	bx	lr
	...

08000190 <main>:
 8000190:	21c0      	movs	r1, #192	; 0xc0
 8000192:	4a16      	ldr	r2, [pc, #88]	; (80001ec <main+0x5c>)
 8000194:	4b16      	ldr	r3, [pc, #88]	; (80001f0 <main+0x60>)
 8000196:	4817      	ldr	r0, [pc, #92]	; (80001f4 <main+0x64>)
 8000198:	b530      	push	{r4, r5, lr}
 800019a:	6053      	str	r3, [r2, #4]
 800019c:	6a03      	ldr	r3, [r0, #32]
 800019e:	0609      	lsls	r1, r1, #24
 80001a0:	021b      	lsls	r3, r3, #8
 80001a2:	0a1b      	lsrs	r3, r3, #8
 80001a4:	430b      	orrs	r3, r1
 80001a6:	6203      	str	r3, [r0, #32]
 80001a8:	2500      	movs	r5, #0
 80001aa:	2307      	movs	r3, #7
 80001ac:	2410      	movs	r4, #16
 80001ae:	b089      	sub	sp, #36	; 0x24
 80001b0:	6095      	str	r5, [r2, #8]
 80001b2:	6013      	str	r3, [r2, #0]
 80001b4:	f7ff ffea 	bl	800018c <Os_Init>
 80001b8:	0022      	movs	r2, r4
 80001ba:	0029      	movs	r1, r5
 80001bc:	a804      	add	r0, sp, #16
 80001be:	f000 f8c1 	bl	8000344 <memset>
 80001c2:	2080      	movs	r0, #128	; 0x80
 80001c4:	4a0c      	ldr	r2, [pc, #48]	; (80001f8 <main+0x68>)
 80001c6:	0280      	lsls	r0, r0, #10
 80001c8:	6951      	ldr	r1, [r2, #20]
 80001ca:	4301      	orrs	r1, r0
 80001cc:	6151      	str	r1, [r2, #20]
 80001ce:	6953      	ldr	r3, [r2, #20]
 80001d0:	a902      	add	r1, sp, #8
 80001d2:	4003      	ands	r3, r0
 80001d4:	2090      	movs	r0, #144	; 0x90
 80001d6:	9301      	str	r3, [sp, #4]
 80001d8:	9b01      	ldr	r3, [sp, #4]
 80001da:	2301      	movs	r3, #1
 80001dc:	05c0      	lsls	r0, r0, #23
 80001de:	6284      	str	r4, [r0, #40]	; 0x28
 80001e0:	9402      	str	r4, [sp, #8]
 80001e2:	9303      	str	r3, [sp, #12]
 80001e4:	f000 f839 	bl	800025a <LL_GPIO_Init>
 80001e8:	bf30      	wfi
 80001ea:	e7fd      	b.n	80001e8 <main+0x58>
 80001ec:	e000e010 	.word	0xe000e010
 80001f0:	000f423f 	.word	0x000f423f
 80001f4:	e000ed00 	.word	0xe000ed00
 80001f8:	40021000 	.word	0x40021000

080001fc <NMI_Handler>:
 80001fc:	e7fe      	b.n	80001fc <NMI_Handler>

080001fe <HardFault_Handler>:
 80001fe:	e7fe      	b.n	80001fe <HardFault_Handler>

08000200 <SVC_Handler>:
 8000200:	4770      	bx	lr

08000202 <PendSV_Handler>:
 8000202:	4770      	bx	lr

08000204 <TIM1_CC_IRQHandler>:
 8000204:	4770      	bx	lr

08000206 <SystemInit>:
 8000206:	4770      	bx	lr

08000208 <Reset_Handler>:
 8000208:	480d      	ldr	r0, [pc, #52]	; (8000240 <LoopForever+0x2>)
 800020a:	4685      	mov	sp, r0
 800020c:	f7ff fffb 	bl	8000206 <SystemInit>
 8000210:	480c      	ldr	r0, [pc, #48]	; (8000244 <LoopForever+0x6>)
 8000212:	490d      	ldr	r1, [pc, #52]	; (8000248 <LoopForever+0xa>)
 8000214:	4a0d      	ldr	r2, [pc, #52]	; (800024c <LoopForever+0xe>)
 8000216:	2300      	movs	r3, #0
 8000218:	e002      	b.n	8000220 <LoopCopyDataInit>

0800021a <CopyDataInit>:
 800021a:	58d4      	ldr	r4, [r2, r3]
 800021c:	50c4      	str	r4, [r0, r3]
 800021e:	3304      	adds	r3, #4

08000220 <LoopCopyDataInit>:
 8000220:	18c4      	adds	r4, r0, r3
 8000222:	428c      	cmp	r4, r1
 8000224:	d3f9      	bcc.n	800021a <CopyDataInit>
 8000226:	4a0a      	ldr	r2, [pc, #40]	; (8000250 <LoopForever+0x12>)
 8000228:	4c0a      	ldr	r4, [pc, #40]	; (8000254 <LoopForever+0x16>)
 800022a:	2300      	movs	r3, #0
 800022c:	e001      	b.n	8000232 <LoopFillZerobss>

0800022e <FillZerobss>:
 800022e:	6013      	str	r3, [r2, #0]
 8000230:	3204      	adds	r2, #4

08000232 <LoopFillZerobss>:
 8000232:	42a2      	cmp	r2, r4
 8000234:	d3fb      	bcc.n	800022e <FillZerobss>
 8000236:	f000 f861 	bl	80002fc <__libc_init_array>
 800023a:	f7ff ffa9 	bl	8000190 <main>

0800023e <LoopForever>:
 800023e:	e7fe      	b.n	800023e <LoopForever>
 8000240:	20001000 	.word	0x20001000
 8000244:	20000000 	.word	0x20000000
 8000248:	20000000 	.word	0x20000000
 800024c:	08000374 	.word	0x08000374
 8000250:	20000000 	.word	0x20000000
 8000254:	20000028 	.word	0x20000028

08000258 <ADC1_IRQHandler>:
 8000258:	e7fe      	b.n	8000258 <ADC1_IRQHandler>

0800025a <LL_GPIO_Init>:
 800025a:	b5f7      	push	{r0, r1, r2, r4, r5, r6, r7, lr}
 800025c:	2300      	movs	r3, #0
 800025e:	0002      	movs	r2, r0
 8000260:	680c      	ldr	r4, [r1, #0]
 8000262:	9300      	str	r3, [sp, #0]
 8000264:	0020      	movs	r0, r4
 8000266:	9b00      	ldr	r3, [sp, #0]
 8000268:	40d8      	lsrs	r0, r3
 800026a:	d100      	bne.n	800026e <LL_GPIO_Init+0x14>
 800026c:	bdfe      	pop	{r1, r2, r3, r4, r5, r6, r7, pc}
 800026e:	2001      	movs	r0, #1
 8000270:	9b00      	ldr	r3, [sp, #0]
 8000272:	4098      	lsls	r0, r3
 8000274:	0023      	movs	r3, r4
 8000276:	4003      	ands	r3, r0
 8000278:	4204      	tst	r4, r0
 800027a:	d031      	beq.n	80002e0 <LL_GPIO_Init+0x86>
 800027c:	6848      	ldr	r0, [r1, #4]
 800027e:	2503      	movs	r5, #3
 8000280:	9001      	str	r0, [sp, #4]
 8000282:	0018      	movs	r0, r3
 8000284:	4358      	muls	r0, r3
 8000286:	4345      	muls	r5, r0
 8000288:	9e01      	ldr	r6, [sp, #4]
 800028a:	43ed      	mvns	r5, r5
 800028c:	1e77      	subs	r7, r6, #1
 800028e:	2f01      	cmp	r7, #1
 8000290:	d80b      	bhi.n	80002aa <LL_GPIO_Init+0x50>
 8000292:	688f      	ldr	r7, [r1, #8]
 8000294:	6896      	ldr	r6, [r2, #8]
 8000296:	4347      	muls	r7, r0
 8000298:	402e      	ands	r6, r5
 800029a:	4337      	orrs	r7, r6
 800029c:	6097      	str	r7, [r2, #8]
 800029e:	6857      	ldr	r7, [r2, #4]
 80002a0:	68ce      	ldr	r6, [r1, #12]
 80002a2:	43a7      	bics	r7, r4
 80002a4:	4374      	muls	r4, r6
 80002a6:	433c      	orrs	r4, r7
 80002a8:	6054      	str	r4, [r2, #4]
 80002aa:	690c      	ldr	r4, [r1, #16]
 80002ac:	68d7      	ldr	r7, [r2, #12]
 80002ae:	4344      	muls	r4, r0
 80002b0:	402f      	ands	r7, r5
 80002b2:	433c      	orrs	r4, r7
 80002b4:	60d4      	str	r4, [r2, #12]
 80002b6:	9c01      	ldr	r4, [sp, #4]
 80002b8:	2c02      	cmp	r4, #2
 80002ba:	d10b      	bne.n	80002d4 <LL_GPIO_Init+0x7a>
 80002bc:	694f      	ldr	r7, [r1, #20]
 80002be:	2bff      	cmp	r3, #255	; 0xff
 80002c0:	d811      	bhi.n	80002e6 <LL_GPIO_Init+0x8c>
 80002c2:	0004      	movs	r4, r0
 80002c4:	260f      	movs	r6, #15
 80002c6:	4344      	muls	r4, r0
 80002c8:	4366      	muls	r6, r4
 80002ca:	437c      	muls	r4, r7
 80002cc:	6a13      	ldr	r3, [r2, #32]
 80002ce:	43b3      	bics	r3, r6
 80002d0:	4323      	orrs	r3, r4
 80002d2:	6213      	str	r3, [r2, #32]
 80002d4:	9c01      	ldr	r4, [sp, #4]
 80002d6:	6813      	ldr	r3, [r2, #0]
 80002d8:	4360      	muls	r0, r4
 80002da:	402b      	ands	r3, r5
 80002dc:	4303      	orrs	r3, r0
 80002de:	6013      	str	r3, [r2, #0]
 80002e0:	9b00      	ldr	r3, [sp, #0]
 80002e2:	3301      	adds	r3, #1
 80002e4:	e7bc      	b.n	8000260 <LL_GPIO_Init+0x6>
 80002e6:	260f      	movs	r6, #15
 80002e8:	0a1b      	lsrs	r3, r3, #8
 80002ea:	435b      	muls	r3, r3
 80002ec:	435b      	muls	r3, r3
 80002ee:	435e      	muls	r6, r3
 80002f0:	437b      	muls	r3, r7
 80002f2:	6a54      	ldr	r4, [r2, #36]	; 0x24
 80002f4:	43b4      	bics	r4, r6
 80002f6:	431c      	orrs	r4, r3
 80002f8:	6254      	str	r4, [r2, #36]	; 0x24
 80002fa:	e7eb      	b.n	80002d4 <LL_GPIO_Init+0x7a>

080002fc <__libc_init_array>:
 80002fc:	b570      	push	{r4, r5, r6, lr}
 80002fe:	2600      	movs	r6, #0
 8000300:	4d0c      	ldr	r5, [pc, #48]	; (8000334 <__libc_init_array+0x38>)
 8000302:	4c0d      	ldr	r4, [pc, #52]	; (8000338 <__libc_init_array+0x3c>)
 8000304:	1b64      	subs	r4, r4, r5
 8000306:	10a4      	asrs	r4, r4, #2
 8000308:	42a6      	cmp	r6, r4
 800030a:	d109      	bne.n	8000320 <__libc_init_array+0x24>
 800030c:	2600      	movs	r6, #0
 800030e:	f000 f821 	bl	8000354 <_init>
 8000312:	4d0a      	ldr	r5, [pc, #40]	; (800033c <__libc_init_array+0x40>)
 8000314:	4c0a      	ldr	r4, [pc, #40]	; (8000340 <__libc_init_array+0x44>)
 8000316:	1b64      	subs	r4, r4, r5
 8000318:	10a4      	asrs	r4, r4, #2
 800031a:	42a6      	cmp	r6, r4
 800031c:	d105      	bne.n	800032a <__libc_init_array+0x2e>
 800031e:	bd70      	pop	{r4, r5, r6, pc}
 8000320:	00b3      	lsls	r3, r6, #2
 8000322:	58eb      	ldr	r3, [r5, r3]
 8000324:	4798      	blx	r3
 8000326:	3601      	adds	r6, #1
 8000328:	e7ee      	b.n	8000308 <__libc_init_array+0xc>
 800032a:	00b3      	lsls	r3, r6, #2
 800032c:	58eb      	ldr	r3, [r5, r3]
 800032e:	4798      	blx	r3
 8000330:	3601      	adds	r6, #1
 8000332:	e7f2      	b.n	800031a <__libc_init_array+0x1e>
 8000334:	0800036c 	.word	0x0800036c
 8000338:	0800036c 	.word	0x0800036c
 800033c:	0800036c 	.word	0x0800036c
 8000340:	08000370 	.word	0x08000370

08000344 <memset>:
 8000344:	0003      	movs	r3, r0
 8000346:	1882      	adds	r2, r0, r2
 8000348:	4293      	cmp	r3, r2
 800034a:	d100      	bne.n	800034e <memset+0xa>
 800034c:	4770      	bx	lr
 800034e:	7019      	strb	r1, [r3, #0]
 8000350:	3301      	adds	r3, #1
 8000352:	e7f9      	b.n	8000348 <memset+0x4>

08000354 <_init>:
 8000354:	b5f8      	push	{r3, r4, r5, r6, r7, lr}
 8000356:	46c0      	nop			; (mov r8, r8)
 8000358:	bcf8      	pop	{r3, r4, r5, r6, r7}
 800035a:	bc08      	pop	{r3}
 800035c:	469e      	mov	lr, r3
 800035e:	4770      	bx	lr

08000360 <_fini>:
 8000360:	b5f8      	push	{r3, r4, r5, r6, r7, lr}
 8000362:	46c0      	nop			; (mov r8, r8)
 8000364:	bcf8      	pop	{r3, r4, r5, r6, r7}
 8000366:	bc08      	pop	{r3}
 8000368:	469e      	mov	lr, r3
 800036a:	4770      	bx	lr
